(dp0
S'ref_point'
p1
(dp2
S'ctW'
p3
S'4'
p4
sS'ctZI'
p5
g4
sS'ctWI'
p6
g4
sS'ctZ'
p7
g4
sS'ctG'
p8
g4
sS'ctGI'
p9
g4
ssS'rw_dict'
p10
(dp11
S'cpQM_0p_cpt_0p_ctW_1p_ctWI_1p_ctZ_0p_ctZI_0p_ctG_0p_ctGI_0p'
p12
I25
sS'cpQM_0p_cpt_0p_ctW_1p_ctWI_0p_ctZ_0p_ctZI_0p_ctG_1p_ctGI_0p'
p13
I28
sS'cpQM_0p_cpt_0p_ctW_1p_ctWI_0p_ctZ_1p_ctZI_0p_ctG_0p_ctGI_0p'
p14
I26
sS'cpQM_0p_cpt_0p_ctW_0p_ctWI_0p_ctZ_2p_ctZI_0p_ctG_0p_ctGI_0p'
p15
I35
sS'cpQM_2p_cpt_0p_ctW_0p_ctWI_0p_ctZ_0p_ctZI_0p_ctG_0p_ctGI_0p'
p16
I9
sS'cpQM_0p_cpt_1p_ctW_0p_ctWI_0p_ctZ_0p_ctZI_0p_ctG_1p_ctGI_0p'
p17
I22
sS'cpQM_0p_cpt_0p_ctW_0p_ctWI_0p_ctZ_0p_ctZI_0p_ctG_0p_ctGI_0p'
p18
I0
sS'cpQM_0p_cpt_0p_ctW_0p_ctWI_0p_ctZ_0p_ctZI_0p_ctG_0p_ctGI_2p'
p19
I44
sS'cpQM_0p_cpt_0p_ctW_0p_ctWI_0p_ctZ_1p_ctZI_1p_ctG_0p_ctGI_0p'
p20
I36
sS'cpQM_0p_cpt_1p_ctW_0p_ctWI_1p_ctZ_0p_ctZI_0p_ctG_0p_ctGI_0p'
p21
I19
sS'cpQM_0p_cpt_1p_ctW_0p_ctWI_0p_ctZ_0p_ctZI_1p_ctG_0p_ctGI_0p'
p22
I21
sS'cpQM_1p_cpt_0p_ctW_0p_ctWI_0p_ctZ_0p_ctZI_1p_ctG_0p_ctGI_0p'
p23
I14
sS'cpQM_0p_cpt_0p_ctW_0p_ctWI_0p_ctZ_0p_ctZI_0p_ctG_1p_ctGI_0p'
p24
I7
sS'cpQM_1p_cpt_0p_ctW_0p_ctWI_0p_ctZ_0p_ctZI_0p_ctG_0p_ctGI_1p'
p25
I16
sS'cpQM_0p_cpt_0p_ctW_1p_ctWI_0p_ctZ_0p_ctZI_0p_ctG_0p_ctGI_0p'
p26
I3
sS'cpQM_0p_cpt_0p_ctW_0p_ctWI_0p_ctZ_0p_ctZI_1p_ctG_1p_ctGI_0p'
p27
I40
sS'cpQM_1p_cpt_0p_ctW_1p_ctWI_0p_ctZ_0p_ctZI_0p_ctG_0p_ctGI_0p'
p28
I11
sS'cpQM_0p_cpt_0p_ctW_2p_ctWI_0p_ctZ_0p_ctZI_0p_ctG_0p_ctGI_0p'
p29
I24
sS'cpQM_0p_cpt_0p_ctW_0p_ctWI_0p_ctZ_0p_ctZI_1p_ctG_0p_ctGI_0p'
p30
I6
sS'cpQM_1p_cpt_0p_ctW_0p_ctWI_0p_ctZ_1p_ctZI_0p_ctG_0p_ctGI_0p'
p31
I13
sS'cpQM_1p_cpt_0p_ctW_0p_ctWI_1p_ctZ_0p_ctZI_0p_ctG_0p_ctGI_0p'
p32
I12
sS'cpQM_0p_cpt_1p_ctW_0p_ctWI_0p_ctZ_0p_ctZI_0p_ctG_0p_ctGI_0p'
p33
I2
sS'cpQM_0p_cpt_0p_ctW_0p_ctWI_0p_ctZ_1p_ctZI_0p_ctG_0p_ctGI_1p'
p34
I38
sS'cpQM_0p_cpt_1p_ctW_1p_ctWI_0p_ctZ_0p_ctZI_0p_ctG_0p_ctGI_0p'
p35
I18
sS'cpQM_0p_cpt_0p_ctW_0p_ctWI_0p_ctZ_0p_ctZI_0p_ctG_2p_ctGI_0p'
p36
I42
sS'cpQM_0p_cpt_0p_ctW_0p_ctWI_0p_ctZ_1p_ctZI_0p_ctG_0p_ctGI_0p'
p37
I5
sS'cpQM_0p_cpt_0p_ctW_0p_ctWI_0p_ctZ_0p_ctZI_0p_ctG_0p_ctGI_1p'
p38
I8
sS'cpQM_0p_cpt_0p_ctW_0p_ctWI_1p_ctZ_1p_ctZI_0p_ctG_0p_ctGI_0p'
p39
I31
sS'cpQM_1p_cpt_0p_ctW_0p_ctWI_0p_ctZ_0p_ctZI_0p_ctG_1p_ctGI_0p'
p40
I15
sS'cpQM_0p_cpt_0p_ctW_0p_ctWI_2p_ctZ_0p_ctZI_0p_ctG_0p_ctGI_0p'
p41
I30
sS'cpQM_1p_cpt_0p_ctW_0p_ctWI_0p_ctZ_0p_ctZI_0p_ctG_0p_ctGI_0p'
p42
I1
sS'cpQM_0p_cpt_0p_ctW_0p_ctWI_0p_ctZ_0p_ctZI_2p_ctG_0p_ctGI_0p'
p43
I39
sS'cpQM_0p_cpt_0p_ctW_0p_ctWI_1p_ctZ_0p_ctZI_0p_ctG_0p_ctGI_1p'
p44
I34
sS'cpQM_0p_cpt_0p_ctW_1p_ctWI_0p_ctZ_0p_ctZI_1p_ctG_0p_ctGI_0p'
p45
I27
sS'cpQM_0p_cpt_2p_ctW_0p_ctWI_0p_ctZ_0p_ctZI_0p_ctG_0p_ctGI_0p'
p46
I17
sS'cpQM_0p_cpt_0p_ctW_1p_ctWI_0p_ctZ_0p_ctZI_0p_ctG_0p_ctGI_1p'
p47
I29
sS'cpQM_1p_cpt_1p_ctW_0p_ctWI_0p_ctZ_0p_ctZI_0p_ctG_0p_ctGI_0p'
p48
I10
sS'cpQM_0p_cpt_0p_ctW_0p_ctWI_1p_ctZ_0p_ctZI_0p_ctG_1p_ctGI_0p'
p49
I33
sS'cpQM_0p_cpt_0p_ctW_0p_ctWI_0p_ctZ_0p_ctZI_1p_ctG_0p_ctGI_1p'
p50
I41
sS'cpQM_0p_cpt_0p_ctW_0p_ctWI_0p_ctZ_0p_ctZI_0p_ctG_1p_ctGI_1p'
p51
I43
sS'cpQM_0p_cpt_0p_ctW_0p_ctWI_1p_ctZ_0p_ctZI_1p_ctG_0p_ctGI_0p'
p52
I32
sS'cpQM_0p_cpt_1p_ctW_0p_ctWI_0p_ctZ_1p_ctZI_0p_ctG_0p_ctGI_0p'
p53
I20
sS'cpQM_0p_cpt_0p_ctW_0p_ctWI_1p_ctZ_0p_ctZI_0p_ctG_0p_ctGI_0p'
p54
I4
sS'cpQM_0p_cpt_1p_ctW_0p_ctWI_0p_ctZ_0p_ctZI_0p_ctG_0p_ctGI_1p'
p55
I23
sS'cpQM_0p_cpt_0p_ctW_0p_ctWI_0p_ctZ_1p_ctZI_0p_ctG_1p_ctGI_0p'
p56
I37
ssS'order'
p57
(dp58
g57
I2
ss.