(dp0
S'ref_point'
p1
(dp2
S'ctZ'
p3
S'4'
p4
ssS'rw_dict'
p5
(dp6
S'cpQM_2p_cpt_0p_ctZ_2p'
p7
I25
sS'cpQM_3p_cpt_0p_ctZ_1p'
p8
I22
sS'cpQM_0p_cpt_3p_ctZ_0p'
p9
I16
sS'cpQM_0p_cpt_2p_ctZ_2p'
p10
I32
sS'cpQM_0p_cpt_2p_ctZ_0p'
p11
I7
sS'cpQM_1p_cpt_1p_ctZ_0p'
p12
I5
sS'cpQM_1p_cpt_1p_ctZ_1p'
p13
I14
sS'cpQM_0p_cpt_4p_ctZ_0p'
p14
I30
sS'cpQM_1p_cpt_0p_ctZ_2p'
p15
I15
sS'cpQM_3p_cpt_1p_ctZ_0p'
p16
I21
sS'cpQM_0p_cpt_1p_ctZ_3p'
p17
I33
sS'cpQM_2p_cpt_2p_ctZ_0p'
p18
I23
sS'cpQM_1p_cpt_3p_ctZ_0p'
p19
I26
sS'cpQM_1p_cpt_0p_ctZ_3p'
p20
I29
sS'cpQM_1p_cpt_2p_ctZ_1p'
p21
I27
sS'cpQM_0p_cpt_1p_ctZ_0p'
p22
I2
sS'cpQM_0p_cpt_0p_ctZ_3p'
p23
I19
sS'cpQM_2p_cpt_0p_ctZ_0p'
p24
I4
sS'cpQM_2p_cpt_1p_ctZ_1p'
p25
I24
sS'cpQM_0p_cpt_0p_ctZ_1p'
p26
I3
sS'cpQM_2p_cpt_1p_ctZ_0p'
p27
I11
sS'cpQM_4p_cpt_0p_ctZ_0p'
p28
I20
sS'cpQM_3p_cpt_0p_ctZ_0p'
p29
I10
sS'cpQM_0p_cpt_2p_ctZ_1p'
p30
I17
sS'cpQM_0p_cpt_3p_ctZ_1p'
p31
I31
sS'cpQM_0p_cpt_1p_ctZ_2p'
p32
I18
sS'cpQM_1p_cpt_0p_ctZ_1p'
p33
I6
sS'cpQM_0p_cpt_1p_ctZ_1p'
p34
I8
sS'cpQM_0p_cpt_0p_ctZ_4p'
p35
I34
sS'cpQM_1p_cpt_0p_ctZ_0p'
p36
I1
sS'cpQM_1p_cpt_1p_ctZ_2p'
p37
I28
sS'cpQM_1p_cpt_2p_ctZ_0p'
p38
I13
sS'cpQM_0p_cpt_0p_ctZ_0p'
p39
I0
sS'cpQM_0p_cpt_0p_ctZ_2p'
p40
I9
sS'cpQM_2p_cpt_0p_ctZ_1p'
p41
I12
ssS'order'
p42
(dp43
g42
I4
ss.